target datalayout = "e-m:e-p270:32:32-p271:32:32-p272:64:64-i64:64-i128:128-f80:128-n8:16:32:64-S128"
target triple = "x86_64-pc-linux-gnu"

%struct.FreePageManager = type { %union.RelptrFreePageManager, %union.RelptrFreePageBtree, %union.RelptrFreePageSpanLeader, i32, i32, i64, i64, i64, i8, [129 x %union.RelptrFreePageSpanLeader] }
%union.RelptrFreePageManager = type { ptr }
%union.RelptrFreePageBtree = type { ptr }
%union.RelptrFreePageSpanLeader = type { ptr }
%struct.FreePageSpanLeader = type { i32, i64, %union.RelptrFreePageSpanLeader, %union.RelptrFreePageSpanLeader }

; Function Attrs: nounwind uwtable
define internal i64 @FreePageManagerLargestContiguous(ptr noundef %0) #0 {
  %2 = alloca ptr, align 8
  %3 = alloca ptr, align 8
  %4 = alloca i64, align 8
  %5 = alloca ptr, align 8
  %6 = alloca i32, align 4
  %7 = alloca i32, align 4
  %8 = alloca i64, align 8
  store ptr %0, ptr %2, align 8
  call void @llvm.lifetime.start.p0(i64 8, ptr %3) #6
  call void @llvm.lifetime.start.p0(i64 8, ptr %4) #6
  %9 = load ptr, ptr %2, align 8
  %10 = load ptr, ptr %2, align 8
  %11 = getelementptr inbounds nuw %struct.FreePageManager, ptr %10, i32 0, i32 0
  %12 = load i64, ptr %11, align 8
  %13 = sub i64 %12, 1
  %14 = sub i64 0, %13
  %15 = getelementptr inbounds i8, ptr %9, i64 %14
  store ptr %15, ptr %3, align 8
  store i64 0, ptr %4, align 8
  %16 = load ptr, ptr %2, align 8
  %17 = getelementptr inbounds nuw %struct.FreePageManager, ptr %16, i32 0, i32 9
  %18 = getelementptr inbounds [129 x %union.RelptrFreePageSpanLeader], ptr %17, i64 0, i64 128
  %19 = load i64, ptr %18, align 8
  %20 = icmp eq i64 %19, 0
  br i1 %20, label %73, label %21

21:                                               ; preds = %1
  call void @llvm.lifetime.start.p0(i64 8, ptr %5) #6
  br label %22

22:                                               ; preds = %21
  br label %23

23:                                               ; preds = %22
  br label %24

24:                                               ; preds = %23
  store i32 1, ptr %6, align 4
  %25 = load ptr, ptr %2, align 8
  %26 = getelementptr inbounds nuw %struct.FreePageManager, ptr %25, i32 0, i32 9
  %27 = getelementptr inbounds [129 x %union.RelptrFreePageSpanLeader], ptr %26, i64 0, i64 128
  %28 = load i64, ptr %27, align 8
  %29 = icmp eq i64 %28, 0
  br i1 %29, label %30, label %31

30:                                               ; preds = %24
  br label %39

31:                                               ; preds = %24
  %32 = load ptr, ptr %3, align 8
  %33 = load ptr, ptr %2, align 8
  %34 = getelementptr inbounds nuw %struct.FreePageManager, ptr %33, i32 0, i32 9
  %35 = getelementptr inbounds [129 x %union.RelptrFreePageSpanLeader], ptr %34, i64 0, i64 128
  %36 = load i64, ptr %35, align 8
  %37 = getelementptr inbounds nuw i8, ptr %32, i64 %36
  %38 = getelementptr inbounds i8, ptr %37, i64 -1
  br label %39

39:                                               ; preds = %31, %30
  %40 = phi ptr [ null, %30 ], [ %38, %31 ]
  store ptr %40, ptr %5, align 8
  br label %41

41:                                               ; preds = %69, %39
  %42 = load ptr, ptr %5, align 8
  %43 = getelementptr inbounds nuw %struct.FreePageSpanLeader, ptr %42, i32 0, i32 1
  %44 = load i64, ptr %43, align 8
  %45 = load i64, ptr %4, align 8
  %46 = icmp ugt i64 %44, %45
  br i1 %46, label %47, label %51

47:                                               ; preds = %41
  %48 = load ptr, ptr %5, align 8
  %49 = getelementptr inbounds nuw %struct.FreePageSpanLeader, ptr %48, i32 0, i32 1
  %50 = load i64, ptr %49, align 8
  store i64 %50, ptr %4, align 8
  br label %51

51:                                               ; preds = %47, %41
  br label %52

52:                                               ; preds = %51
  br label %53

53:                                               ; preds = %52
  br label %54

54:                                               ; preds = %53
  store i32 1, ptr %7, align 4
  %55 = load ptr, ptr %5, align 8
  %56 = getelementptr inbounds nuw %struct.FreePageSpanLeader, ptr %55, i32 0, i32 3
  %57 = load i64, ptr %56, align 8
  %58 = icmp eq i64 %57, 0
  br i1 %58, label %59, label %60

59:                                               ; preds = %54
  br label %67

60:                                               ; preds = %54
  %61 = load ptr, ptr %3, align 8
  %62 = load ptr, ptr %5, align 8
  %63 = getelementptr inbounds nuw %struct.FreePageSpanLeader, ptr %62, i32 0, i32 3
  %64 = load i64, ptr %63, align 8
  %65 = getelementptr inbounds nuw i8, ptr %61, i64 %64
  %66 = getelementptr inbounds i8, ptr %65, i64 -1
  br label %67

67:                                               ; preds = %60, %59
  %68 = phi ptr [ null, %59 ], [ %66, %60 ]
  store ptr %68, ptr %5, align 8
  br label %69

69:                                               ; preds = %67
  %70 = load ptr, ptr %5, align 8
  %71 = icmp ne ptr %70, null
  br i1 %71, label %41, label %72, !llvm.loop !17

72:                                               ; preds = %69
  call void @llvm.lifetime.end.p0(i64 8, ptr %5) #6
  br label %91

73:                                               ; preds = %1
  call void @llvm.lifetime.start.p0(i64 8, ptr %8) #6
  store i64 128, ptr %8, align 8
  br label %74

74:                                               ; preds = %87, %73
  %75 = load i64, ptr %8, align 8
  %76 = add i64 %75, -1
  store i64 %76, ptr %8, align 8
  %77 = load ptr, ptr %2, align 8
  %78 = getelementptr inbounds nuw %struct.FreePageManager, ptr %77, i32 0, i32 9
  %79 = load i64, ptr %8, align 8
  %80 = getelementptr inbounds nuw [129 x %union.RelptrFreePageSpanLeader], ptr %78, i64 0, i64 %79
  %81 = load i64, ptr %80, align 8
  %82 = icmp eq i64 %81, 0
  br i1 %82, label %86, label %83

83:                                               ; preds = %74
  %84 = load i64, ptr %8, align 8
  %85 = add i64 %84, 1
  store i64 %85, ptr %4, align 8
  br label %90

86:                                               ; preds = %74
  br label %87

87:                                               ; preds = %86
  %88 = load i64, ptr %8, align 8
  %89 = icmp ugt i64 %88, 0
  br i1 %89, label %74, label %90, !llvm.loop !18

90:                                               ; preds = %87, %83
  call void @llvm.lifetime.end.p0(i64 8, ptr %8) #6
  br label %91

91:                                               ; preds = %90, %72
  %92 = load i64, ptr %4, align 8
  call void @llvm.lifetime.end.p0(i64 8, ptr %4) #6
  call void @llvm.lifetime.end.p0(i64 8, ptr %3) #6
  ret i64 %92
}

; Function Attrs: nounwind uwtable
define internal void @FreePageManagerUpdateLargest(ptr noundef %0) #0 {
  %2 = alloca ptr, align 8
  store ptr %0, ptr %2, align 8
  %3 = load ptr, ptr %2, align 8
  %4 = getelementptr inbounds nuw %struct.FreePageManager, ptr %3, i32 0, i32 8
  %5 = load i8, ptr %4, align 8, !range !6, !noundef !7
  %6 = trunc i8 %5 to i1
  br i1 %6, label %8, label %7

7:                                                ; preds = %1
  br label %15

8:                                                ; preds = %1
  %9 = load ptr, ptr %2, align 8
  %10 = call i64 @FreePageManagerLargestContiguous(ptr noundef %9)
  %11 = load ptr, ptr %2, align 8
  %12 = getelementptr inbounds nuw %struct.FreePageManager, ptr %11, i32 0, i32 7
  store i64 %10, ptr %12, align 8
  %13 = load ptr, ptr %2, align 8
  %14 = getelementptr inbounds nuw %struct.FreePageManager, ptr %13, i32 0, i32 8
  store i8 0, ptr %14, align 8
  br label %15

15:                                               ; preds = %8, %7
  ret void
}

; Function Attrs: nounwind uwtable
define dso_local zeroext i1 @FreePageManagerGet(ptr noundef %0, i64 noundef %1, ptr noundef %2) #0 {
  %4 = alloca ptr, align 8
  %5 = alloca i64, align 8
  %6 = alloca ptr, align 8
  %7 = alloca i8, align 1
  %8 = alloca i64, align 8
  store ptr %0, ptr %4, align 8
  store i64 %1, ptr %5, align 8
  store ptr %2, ptr %6, align 8
  call void @llvm.lifetime.start.p0(i64 1, ptr %7) #6
  call void @llvm.lifetime.start.p0(i64 8, ptr %8) #6
  %9 = load ptr, ptr %4, align 8
  %10 = load i64, ptr %5, align 8
  %11 = load ptr, ptr %6, align 8
  %12 = call zeroext i1 @FreePageManagerGetInternal(ptr noundef %9, i64 noundef %10, ptr noundef %11)
  %13 = zext i1 %12 to i8
  store i8 %13, ptr %7, align 1
  %14 = load ptr, ptr %4, align 8
  %15 = call i64 @FreePageBtreeCleanup(ptr noundef %14)
  store i64 %15, ptr %8, align 8
  %16 = load ptr, ptr %4, align 8
  %17 = getelementptr inbounds nuw %struct.FreePageManager, ptr %16, i32 0, i32 7
  %18 = load i64, ptr %17, align 8
  %19 = load i64, ptr %8, align 8
  %20 = icmp ult i64 %18, %19
  br i1 %20, label %21, label %25

21:                                               ; preds = %3
  %22 = load i64, ptr %8, align 8
  %23 = load ptr, ptr %4, align 8
  %24 = getelementptr inbounds nuw %struct.FreePageManager, ptr %23, i32 0, i32 7
  store i64 %22, ptr %24, align 8
  br label %25

25:                                               ; preds = %21, %3
  %26 = load ptr, ptr %4, align 8
  call void @FreePageManagerUpdateLargest(ptr noundef %26)
  %27 = load i8, ptr %7, align 1, !range !6, !noundef !7
  %28 = trunc i8 %27 to i1
  call void @llvm.lifetime.end.p0(i64 8, ptr %8) #6
  call void @llvm.lifetime.end.p0(i64 1, ptr %7) #6
  ret i1 %28
}