; Function Attrs: nounwind uwtable
define dso_local noundef zeroext i1 @FreePageManagerGet(ptr noundef %0, i64 noundef %1, ptr noundef writeonly captures(none) %2) local_unnamed_addr #2 {
  %4 = tail call fastcc zeroext i1 @FreePageManagerGetInternal(ptr noundef %0, i64 noundef %1, ptr noundef %2)
  %5 = tail call fastcc i64 @FreePageBtreeCleanup(ptr noundef %0)
  %6 = getelementptr inbounds nuw i8, ptr %0, i64 48
  %7 = load i64, ptr %6, align 8
  %8 = icmp ult i64 %7, %5
  br i1 %8, label %9, label %10

9:                                                ; preds = %3
  store i64 %5, ptr %6, align 8
  br label %10

10:                                               ; preds = %9, %3
  %11 = getelementptr inbounds nuw i8, ptr %0, i64 56
  %12 = load i8, ptr %11, align 8, !range !4, !noundef !5
  %13 = trunc nuw i8 %12 to i1
  br i1 %13, label %14, label %FreePageManagerUpdateLargest.exit

14:                                               ; preds = %10
  %15 = load i64, ptr %0, align 8
  %16 = sub i64 1, %15
  %17 = getelementptr inbounds i8, ptr %0, i64 %16
  %18 = getelementptr inbounds nuw i8, ptr %0, i64 64
  %19 = getelementptr inbounds nuw i8, ptr %0, i64 1088
  %20 = load i64, ptr %19, align 8
  %21 = icmp eq i64 %20, 0
  br i1 %21, label %.preheader.i.i, label %.preheader27.i.i

.preheader27.i.i:                                 ; preds = %14, %.preheader27.i.i
  %.pn26.i.i = phi i64 [ %25, %.preheader27.i.i ], [ %20, %14 ]
  %.018.i.i = phi i64 [ %spec.select.i.i, %.preheader27.i.i ], [ 0, %14 ]
  %.pn.i.i = getelementptr inbounds nuw i8, ptr %17, i64 %.pn26.i.i
  %22 = getelementptr inbounds nuw i8, ptr %.pn.i.i, i64 7
  %23 = load i64, ptr %22, align 8
  %spec.select.i.i = tail call i64 @llvm.umax.i64(i64 %23, i64 %.018.i.i)
  %24 = getelementptr inbounds nuw i8, ptr %.pn.i.i, i64 23
  %25 = load i64, ptr %24, align 8
  %26 = icmp eq i64 %25, 0
  br i1 %26, label %FreePageManagerLargestContiguous.exit.i, label %.preheader27.i.i, !llvm.loop !6

.preheader.i.i:                                   ; preds = %14, %31
  %.0.i.i = phi i64 [ %27, %31 ], [ 128, %14 ]
  %27 = add nsw i64 %.0.i.i, -1
  %28 = getelementptr inbounds nuw [129 x %union.RelptrFreePageSpanLeader], ptr %18, i64 0, i64 %27
  %29 = load i64, ptr %28, align 8
  %30 = icmp eq i64 %29, 0
  br i1 %30, label %31, label %FreePageManagerLargestContiguous.exit.i

31:                                               ; preds = %.preheader.i.i
  %.not25.i.i = icmp eq i64 %27, 0
  br i1 %.not25.i.i, label %FreePageManagerLargestContiguous.exit.i, label %.preheader.i.i, !llvm.loop !8

FreePageManagerLargestContiguous.exit.i:          ; preds = %.preheader27.i.i, %31, %.preheader.i.i
  %.2.i.i = phi i64 [ %.0.i.i, %.preheader.i.i ], [ 0, %31 ], [ %spec.select.i.i, %.preheader27.i.i ]
  store i64 %.2.i.i, ptr %6, align 8
  store i8 0, ptr %11, align 8
  br label %FreePageManagerUpdateLargest.exit

FreePageManagerUpdateLargest.exit:                ; preds = %10, %FreePageManagerLargestContiguous.exit.i
  ret i1 %4
}